; Function Attrs: mustprogress uwtable
define void @_ZN7openvdb5v11_08GridBase18setSaveFloatAsHalfEb(ptr noundef nonnull align 8 dereferenceable(72) %this, i1 noundef zeroext %saveAsHalf) local_unnamed_addr #5 align 2 personality ptr @__gxx_personality_v0 {
entry:
  %ref.tmp = alloca %"class.std::__cxx11::basic_string", align 8
  %ref.tmp2 = alloca %"class.std::allocator.0", align 1
  %ref.tmp5 = alloca %"class.std::__cxx11::basic_string", align 8
  %ref.tmp6 = alloca %"class.std::allocator.0", align 1
  %ref.tmp9 = alloca %"class.openvdb::v11_0::TypedMetadata.20", align 8
  %frombool = zext i1 %saveAsHalf to i8
  call void @_ZNSaIcEC1Ev(ptr noundef nonnull align 1 dereferenceable(1) %ref.tmp2) #18
  %call.i5 = invoke noundef ptr @_ZNSt7__cxx1112basic_stringIcSt11char_traitsIcESaIcEE13_M_local_dataEv(ptr noundef nonnull align 8 dereferenceable(32) %ref.tmp)
          to label %call.i.noexc unwind label %lpad

call.i.noexc:                                     ; preds = %entry
  invoke void @_ZNSt7__cxx1112basic_stringIcSt11char_traitsIcESaIcEE12_Alloc_hiderC1EPcRKS3_(ptr noundef nonnull align 8 dereferenceable(8) %ref.tmp, ptr noundef %call.i5, ptr noundef nonnull align 1 dereferenceable(1) %ref.tmp2)
          to label %.noexc unwind label %lpad

.noexc:                                           ; preds = %call.i.noexc
  invoke void @_ZNSt7__cxx1112basic_stringIcSt11char_traitsIcESaIcEE12_M_constructIPKcEEvT_S8_St20forward_iterator_tag(ptr noundef nonnull align 8 dereferenceable(32) %ref.tmp, ptr noundef nonnull @.str.5, ptr noundef nonnull getelementptr inbounds ([23 x i8], ptr @.str.5, i64 0, i64 22))
          to label %invoke.cont unwind label %lpad.i

lpad.i:                                           ; preds = %.noexc
  %0 = landingpad { ptr, i32 }
          cleanup
  call void @_ZNSaIcED2Ev(ptr noundef nonnull align 1 dereferenceable(1) %ref.tmp) #18
  br label %eh.resume

invoke.cont:                                      ; preds = %.noexc
  invoke void @_ZN7openvdb5v11_07MetaMap10removeMetaERKNSt7__cxx1112basic_stringIcSt11char_traitsIcESaIcEEE(ptr noundef nonnull align 8 dereferenceable(56) %this, ptr noundef nonnull align 8 dereferenceable(32) %ref.tmp)
          to label %invoke.cont4 unwind label %lpad3

invoke.cont4:                                     ; preds = %invoke.cont
  call void @_ZNSt7__cxx1112basic_stringIcSt11char_traitsIcESaIcEED1Ev(ptr noundef nonnull align 8 dereferenceable(32) %ref.tmp) #18
  call void @_ZNSaIcED1Ev(ptr noundef nonnull align 1 dereferenceable(1) %ref.tmp2) #18
  call void @_ZNSaIcEC1Ev(ptr noundef nonnull align 1 dereferenceable(1) %ref.tmp6) #18
  %call.i10 = invoke noundef ptr @_ZNSt7__cxx1112basic_stringIcSt11char_traitsIcESaIcEE13_M_local_dataEv(ptr noundef nonnull align 8 dereferenceable(32) %ref.tmp5)
          to label %call.i.noexc9 unwind label %lpad7

call.i.noexc9:                                    ; preds = %invoke.cont4
  invoke void @_ZNSt7__cxx1112basic_stringIcSt11char_traitsIcESaIcEE12_Alloc_hiderC1EPcRKS3_(ptr noundef nonnull align 8 dereferenceable(8) %ref.tmp5, ptr noundef %call.i10, ptr noundef nonnull align 1 dereferenceable(1) %ref.tmp6)
          to label %.noexc11 unwind label %lpad7

.noexc11:                                         ; preds = %call.i.noexc9
  invoke void @_ZNSt7__cxx1112basic_stringIcSt11char_traitsIcESaIcEE12_M_constructIPKcEEvT_S8_St20forward_iterator_tag(ptr noundef nonnull align 8 dereferenceable(32) %ref.tmp5, ptr noundef nonnull @.str.5, ptr noundef nonnull getelementptr inbounds ([23 x i8], ptr @.str.5, i64 0, i64 22))
          to label %invoke.cont8 unwind label %lpad.i8

lpad.i8:                                          ; preds = %.noexc11
  %1 = landingpad { ptr, i32 }
          cleanup
  call void @_ZNSaIcED2Ev(ptr noundef nonnull align 1 dereferenceable(1) %ref.tmp5) #18
  br label %eh.resume

invoke.cont8:                                     ; preds = %.noexc11
  store ptr getelementptr inbounds ({ [12 x ptr] }, ptr @_ZTVN7openvdb5v11_013TypedMetadataIbEE, i64 0, i32 0, i64 2), ptr %ref.tmp9, align 8
  %mValue.i = getelementptr inbounds i8, ptr %ref.tmp9, i64 8
  store i8 %frombool, ptr %mValue.i, align 8
  invoke void @_ZN7openvdb5v11_07MetaMap10insertMetaERKNSt7__cxx1112basic_stringIcSt11char_traitsIcESaIcEEERKNS0_8MetadataE(ptr noundef nonnull align 8 dereferenceable(56) %this, ptr noundef nonnull align 8 dereferenceable(32) %ref.tmp5, ptr noundef nonnull align 8 dereferenceable(8) %ref.tmp9)
          to label %invoke.cont13 unwind label %lpad12

invoke.cont13:                                    ; preds = %invoke.cont8
  call void @_ZNSt7__cxx1112basic_stringIcSt11char_traitsIcESaIcEED1Ev(ptr noundef nonnull align 8 dereferenceable(32) %ref.tmp5) #18
  call void @_ZNSaIcED1Ev(ptr noundef nonnull align 1 dereferenceable(1) %ref.tmp6) #18
  ret void

lpad:                                             ; preds = %call.i.noexc, %entry
  %2 = landingpad { ptr, i32 }
          cleanup
  br label %eh.resume

lpad3:                                            ; preds = %invoke.cont
  %3 = landingpad { ptr, i32 }
          cleanup
  call void @_ZNSt7__cxx1112basic_stringIcSt11char_traitsIcESaIcEED1Ev(ptr noundef nonnull align 8 dereferenceable(32) %ref.tmp) #18
  br label %eh.resume

lpad7:                                            ; preds = %call.i.noexc9, %invoke.cont4
  %4 = landingpad { ptr, i32 }
          cleanup
  br label %eh.resume

lpad12:                                           ; preds = %invoke.cont8
  %5 = landingpad { ptr, i32 }
          cleanup
  call void @_ZNSt7__cxx1112basic_stringIcSt11char_traitsIcESaIcEED1Ev(ptr noundef nonnull align 8 dereferenceable(32) %ref.tmp5) #18
  br label %eh.resume

eh.resume:                                        ; preds = %lpad12, %lpad.i8, %lpad7, %lpad3, %lpad.i, %lpad
  %ref.tmp6.sink = phi ptr [ %ref.tmp2, %lpad ], [ %ref.tmp2, %lpad.i ], [ %ref.tmp2, %lpad3 ], [ %ref.tmp6, %lpad7 ], [ %ref.tmp6, %lpad.i8 ], [ %ref.tmp6, %lpad12 ]
  %.pn2.pn = phi { ptr, i32 } [ %2, %lpad ], [ %0, %lpad.i ], [ %3, %lpad3 ], [ %4, %lpad7 ], [ %1, %lpad.i8 ], [ %5, %lpad12 ]
  call void @_ZNSaIcED1Ev(ptr noundef nonnull align 1 dereferenceable(1) %ref.tmp6.sink) #18
  resume { ptr, i32 } %.pn2.pn
}